; Function Attrs: cold mustprogress noreturn uwtable
define internal void @_ZZN12_GLOBAL__N_133LogSinkDeathTest_DeathInSend_Test8TestBodyEvEN13FatalSendSink4SendERKN4absl8LogEntryE(ptr nonnull readnone align 8 captures(none) %0, ptr nonnull readnone align 8 captures(none) %1) unnamed_addr #21 align 2 personality ptr @__gxx_personality_v0 {
  %3 = alloca %"class.absl::log_internal::LogMessageFatal", align 8
  call void @llvm.lifetime.start.p0(i64 16, ptr nonnull %3) #29
  call void @_ZN4absl12log_internal15LogMessageFatalC1EPKci(ptr noundef nonnull align 8 dereferenceable(16) %3, ptr noundef nonnull @.str.4, i32 noundef 133) #33
  %4 = invoke noundef nonnull align 8 dereferenceable(16) ptr @_ZN4absl12log_internal10LogMessagelsILi14EEERS1_RAT__Kc(ptr noundef nonnull align 8 dereferenceable(16) %3, ptr noundef nonnull align 1 dereferenceable(14) @.str.102)
          to label %5 unwind label %6

5:                                                ; preds = %2
  call void @_ZN4absl12log_internal15LogMessageFatalD1Ev(ptr noundef nonnull align 8 dereferenceable(16) %3) #30
  unreachable

6:                                                ; preds = %2
  %7 = landingpad { ptr, i32 }
          cleanup
  call void @_ZN4absl12log_internal15LogMessageFatalD1Ev(ptr noundef nonnull align 8 dereferenceable(16) %3) #30
  unreachable
}